target datalayout = "e-m:e-p270:32:32-p271:32:32-p272:64:64-i64:64-i128:128-f80:128-n8:16:32:64-S128"
target triple = "x86_64-pc-linux-gnu"

%struct.expert_field = type { i32, i32 }

@ei_gsm_a_bssmap_extraneous_data = internal global %struct.expert_field zeroinitializer, align 4
@hf_gsm_a_bssmap_spare_bits = internal global i32 0, align 4
@hf_gsm_a_bssmap_ti_flag = internal global i32 0, align 4
@hf_gsm_a_bssmap_tio = internal global i32 0, align 4
@hf_gsm_a_L3_protocol_discriminator = external global i32, align 4

; Function Attrs: null_pointer_is_valid sspstrong uwtable
define internal zeroext i16 @be_l3_header_info(ptr noundef %0, ptr noundef %1, ptr noundef %2, i32 noundef %3, i32 noundef %4, ptr noundef %5, i32 noundef %6) #1 {
  %8 = alloca i16, align 2
  %9 = alloca ptr, align 8
  %10 = alloca ptr, align 8
  %11 = alloca ptr, align 8
  %12 = alloca i32, align 4
  %13 = alloca i32, align 4
  %14 = alloca ptr, align 8
  %15 = alloca i32, align 4
  %16 = alloca i32, align 4
  %17 = alloca i32, align 4
  store ptr %0, ptr %9, align 8
  store ptr %1, ptr %10, align 8
  store ptr %2, ptr %11, align 8
  store i32 %3, ptr %12, align 4
  store i32 %4, ptr %13, align 4
  store ptr %5, ptr %14, align 8
  store i32 %6, ptr %15, align 4
  call void @llvm.lifetime.start.p0(i64 4, ptr %16) #5
  %18 = load i32, ptr %12, align 4
  store i32 %18, ptr %16, align 4
  %19 = load ptr, ptr %10, align 8
  %20 = load i32, ptr @hf_gsm_a_bssmap_spare_bits, align 4
  %21 = load ptr, ptr %9, align 8
  %22 = load i32, ptr %16, align 4
  %23 = shl i32 %22, 3
  %24 = call ptr @proto_tree_add_bits_item(ptr noundef %19, i32 noundef %20, ptr noundef %21, i32 noundef %23, i32 noundef 4, i32 noundef 0)
  %25 = load ptr, ptr %10, align 8
  %26 = load i32, ptr @hf_gsm_a_L3_protocol_discriminator, align 4
  %27 = load ptr, ptr %9, align 8
  %28 = load i32, ptr %16, align 4
  %29 = call ptr @proto_tree_add_item(ptr noundef %25, i32 noundef %26, ptr noundef %27, i32 noundef %28, i32 noundef 1, i32 noundef 0)
  %30 = load i32, ptr %16, align 4
  %31 = add i32 %30, 1
  store i32 %31, ptr %16, align 4
  %32 = load i32, ptr %13, align 4
  %33 = load i32, ptr %16, align 4
  %34 = load i32, ptr %12, align 4
  %35 = sub i32 %33, %34
  %36 = icmp ule i32 %32, %35
  br i1 %36, label %37, label %40

37:                                               ; preds = %7
  %38 = load i32, ptr %13, align 4
  %39 = trunc i32 %38 to i16
  store i16 %39, ptr %8, align 2
  store i32 1, ptr %17, align 4
  br label %87

40:                                               ; preds = %7
  %41 = load ptr, ptr %10, align 8
  %42 = load i32, ptr @hf_gsm_a_bssmap_spare_bits, align 4
  %43 = load ptr, ptr %9, align 8
  %44 = load i32, ptr %16, align 4
  %45 = shl i32 %44, 3
  %46 = call ptr @proto_tree_add_bits_item(ptr noundef %41, i32 noundef %42, ptr noundef %43, i32 noundef %45, i32 noundef 4, i32 noundef 0)
  %47 = load ptr, ptr %10, align 8
  %48 = load i32, ptr @hf_gsm_a_bssmap_ti_flag, align 4
  %49 = load ptr, ptr %9, align 8
  %50 = load i32, ptr %16, align 4
  %51 = call ptr @proto_tree_add_item(ptr noundef %47, i32 noundef %48, ptr noundef %49, i32 noundef %50, i32 noundef 1, i32 noundef 0)
  %52 = load ptr, ptr %10, align 8
  %53 = load i32, ptr @hf_gsm_a_bssmap_tio, align 4
  %54 = load ptr, ptr %9, align 8
  %55 = load i32, ptr %16, align 4
  %56 = call ptr @proto_tree_add_item(ptr noundef %52, i32 noundef %53, ptr noundef %54, i32 noundef %55, i32 noundef 1, i32 noundef 0)
  %57 = load i32, ptr %16, align 4
  %58 = add i32 %57, 1
  store i32 %58, ptr %16, align 4
  %59 = load i32, ptr %13, align 4
  %60 = load i32, ptr %16, align 4
  %61 = load i32, ptr %12, align 4
  %62 = sub i32 %60, %61
  %63 = icmp ugt i32 %59, %62
  br i1 %63, label %64, label %82

64:                                               ; preds = %40
  %65 = load ptr, ptr %10, align 8
  %66 = load ptr, ptr %11, align 8
  %67 = load ptr, ptr %9, align 8
  %68 = load i32, ptr %16, align 4
  %69 = load i32, ptr %13, align 4
  %70 = load i32, ptr %16, align 4
  %71 = load i32, ptr %12, align 4
  %72 = sub i32 %70, %71
  %73 = sub i32 %69, %72
  %74 = call ptr @proto_tree_add_expert(ptr noundef %65, ptr noundef %66, ptr noundef @ei_gsm_a_bssmap_extraneous_data, ptr noundef %67, i32 noundef %68, i32 noundef %73)
  %75 = load i32, ptr %13, align 4
  %76 = load i32, ptr %16, align 4
  %77 = load i32, ptr %12, align 4
  %78 = sub i32 %76, %77
  %79 = sub i32 %75, %78
  %80 = load i32, ptr %16, align 4
  %81 = add i32 %80, %79
  store i32 %81, ptr %16, align 4
  br label %82

82:                                               ; preds = %64, %40
  %83 = load i32, ptr %16, align 4
  %84 = load i32, ptr %12, align 4
  %85 = sub i32 %83, %84
  %86 = trunc i32 %85 to i16
  store i16 %86, ptr %8, align 2
  store i32 1, ptr %17, align 4
  br label %87

87:                                               ; preds = %82, %37
  call void @llvm.lifetime.end.p0(i64 4, ptr %16) #5
  %88 = load i16, ptr %8, align 2
  ret i16 %88
}