; Function Attrs: null_pointer_is_valid sspstrong uwtable
define internal noundef zeroext i16 @be_l3_header_info(ptr noundef %0, ptr noundef %1, ptr noundef %2, i32 noundef %3, i32 noundef %4, ptr readnone captures(none) %5, i32 %6) #1 {
  %8 = load i32, ptr @hf_gsm_a_bssmap_spare_bits, align 4
  %9 = shl i32 %3, 3
  %10 = tail call ptr @proto_tree_add_bits_item(ptr noundef %1, i32 noundef %8, ptr noundef %0, i32 noundef %9, i32 noundef 4, i32 noundef 0)
  %11 = load i32, ptr @hf_gsm_a_L3_protocol_discriminator, align 4
  %12 = tail call ptr @proto_tree_add_item(ptr noundef %1, i32 noundef %11, ptr noundef %0, i32 noundef %3, i32 noundef 1, i32 noundef 0)
  %13 = icmp ult i32 %4, 2
  br i1 %13, label %30, label %14

14:                                               ; preds = %7
  %15 = add i32 %3, 1
  %16 = load i32, ptr @hf_gsm_a_bssmap_spare_bits, align 4
  %17 = shl i32 %15, 3
  %18 = tail call ptr @proto_tree_add_bits_item(ptr noundef %1, i32 noundef %16, ptr noundef %0, i32 noundef %17, i32 noundef 4, i32 noundef 0)
  %19 = load i32, ptr @hf_gsm_a_bssmap_ti_flag, align 4
  %20 = tail call ptr @proto_tree_add_item(ptr noundef %1, i32 noundef %19, ptr noundef %0, i32 noundef %15, i32 noundef 1, i32 noundef 0)
  %21 = load i32, ptr @hf_gsm_a_bssmap_tio, align 4
  %22 = tail call ptr @proto_tree_add_item(ptr noundef %1, i32 noundef %21, ptr noundef %0, i32 noundef %15, i32 noundef 1, i32 noundef 0)
  %23 = add i32 %3, 2
  %.not = icmp eq i32 %4, 2
  br i1 %.not, label %28, label %24

24:                                               ; preds = %14
  %25 = add i32 %4, -2
  %26 = tail call ptr @proto_tree_add_expert(ptr noundef %1, ptr noundef %2, ptr noundef nonnull @ei_gsm_a_bssmap_extraneous_data, ptr noundef %0, i32 noundef %23, i32 noundef %25)
  %27 = add i32 %4, %3
  br label %28

28:                                               ; preds = %24, %14
  %.0 = phi i32 [ %27, %24 ], [ %23, %14 ]
  %29 = sub i32 %.0, %3
  br label %30

30:                                               ; preds = %7, %28
  %.038.in = phi i32 [ %29, %28 ], [ %4, %7 ]
  %.038 = trunc i32 %.038.in to i16
  ret i16 %.038
}